target datalayout = "e-m:e-p270:32:32-p271:32:32-p272:64:64-i64:64-i128:128-f80:128-n8:16:32:64-S128"
target triple = "x86_64-pc-linux-gnu"

%struct.dtMeshTile = type { i32, i32, ptr, ptr, ptr, ptr, ptr, ptr, ptr, ptr, ptr, ptr, i32, i32, ptr }

; Function Attrs: mustprogress uwtable
define void @_Z32duDebugDrawNavMeshWithClosedListP11duDebugDrawRK9dtNavMeshRK14dtNavMeshQueryh(ptr noundef %0, ptr noundef nonnull align 8 dereferenceable(100) %1, ptr noundef nonnull align 8 dereferenceable(104) %2, i8 noundef zeroext %3) #0 {
  %5 = alloca ptr, align 8
  %6 = alloca ptr, align 8
  %7 = alloca ptr, align 8
  %8 = alloca i8, align 1
  %9 = alloca ptr, align 8
  %10 = alloca i32, align 4
  %11 = alloca ptr, align 8
  store ptr %0, ptr %5, align 8
  store ptr %1, ptr %6, align 8
  store ptr %2, ptr %7, align 8
  store i8 %3, ptr %8, align 1
  %12 = load ptr, ptr %5, align 8
  %13 = icmp ne ptr %12, null
  br i1 %13, label %15, label %14

14:                                               ; preds = %4
  br label %48

15:                                               ; preds = %4
  %16 = load i8, ptr %8, align 1
  %17 = zext i8 %16 to i32
  %18 = and i32 %17, 2
  %19 = icmp ne i32 %18, 0
  br i1 %19, label %20, label %22

20:                                               ; preds = %15
  %21 = load ptr, ptr %7, align 8
  br label %23

22:                                               ; preds = %15
  br label %23

23:                                               ; preds = %22, %20
  %24 = phi ptr [ %21, %20 ], [ null, %22 ]
  store ptr %24, ptr %9, align 8
  store i32 0, ptr %10, align 4
  br label %25

25:                                               ; preds = %45, %23
  %26 = load i32, ptr %10, align 4
  %27 = load ptr, ptr %6, align 8
  %28 = call noundef i32 @_ZNK9dtNavMesh11getMaxTilesEv(ptr noundef nonnull align 8 dereferenceable(100) %27)
  %29 = icmp slt i32 %26, %28
  br i1 %29, label %30, label %48

30:                                               ; preds = %25
  %31 = load ptr, ptr %6, align 8
  %32 = load i32, ptr %10, align 4
  %33 = call noundef ptr @_ZNK9dtNavMesh7getTileEi(ptr noundef nonnull align 8 dereferenceable(100) %31, i32 noundef %32)
  store ptr %33, ptr %11, align 8
  %34 = load ptr, ptr %11, align 8
  %35 = getelementptr inbounds %struct.dtMeshTile, ptr %34, i32 0, i32 2
  %36 = load ptr, ptr %35, align 8
  %37 = icmp ne ptr %36, null
  br i1 %37, label %39, label %38

38:                                               ; preds = %30
  br label %45

39:                                               ; preds = %30
  %40 = load ptr, ptr %5, align 8
  %41 = load ptr, ptr %6, align 8
  %42 = load ptr, ptr %9, align 8
  %43 = load ptr, ptr %11, align 8
  %44 = load i8, ptr %8, align 1
  call void @_ZL12drawMeshTileP11duDebugDrawRK9dtNavMeshPK14dtNavMeshQueryPK10dtMeshTileh(ptr noundef %40, ptr noundef nonnull align 8 dereferenceable(100) %41, ptr noundef %42, ptr noundef %43, i8 noundef zeroext %44)
  br label %45

45:                                               ; preds = %39, %38
  %46 = load i32, ptr %10, align 4
  %47 = add nsw i32 %46, 1
  store i32 %47, ptr %10, align 4
  br label %25, !llvm.loop !12

48:                                               ; preds = %25, %14
  ret void
}