; Function Attrs: mustprogress uwtable
define void @_Z32duDebugDrawNavMeshWithClosedListP11duDebugDrawRK9dtNavMeshRK14dtNavMeshQueryh(ptr noundef %0, ptr noundef nonnull align 8 dereferenceable(100) %1, ptr noundef nonnull align 8 dereferenceable(104) %2, i8 noundef zeroext %3) local_unnamed_addr #0 {
  %.not = icmp eq ptr %0, null
  br i1 %.not, label %.loopexit, label %5

5:                                                ; preds = %4
  %6 = and i8 %3, 2
  %.not14 = icmp eq i8 %6, 0
  %7 = select i1 %.not14, ptr null, ptr %2
  %8 = tail call noundef i32 @_ZNK9dtNavMesh11getMaxTilesEv(ptr noundef nonnull align 8 dereferenceable(100) %1)
  %9 = icmp sgt i32 %8, 0
  br i1 %9, label %.lr.ph, label %.loopexit

.lr.ph:                                           ; preds = %5, %14
  %.016 = phi i32 [ %15, %14 ], [ 0, %5 ]
  %10 = tail call noundef ptr @_ZNK9dtNavMesh7getTileEi(ptr noundef nonnull align 8 dereferenceable(100) %1, i32 noundef %.016)
  %11 = getelementptr inbounds nuw i8, ptr %10, i64 8
  %12 = load ptr, ptr %11, align 8
  %.not15 = icmp eq ptr %12, null
  br i1 %.not15, label %14, label %13

13:                                               ; preds = %.lr.ph
  tail call fastcc void @_ZL12drawMeshTileP11duDebugDrawRK9dtNavMeshPK14dtNavMeshQueryPK10dtMeshTileh(ptr noundef %0, ptr noundef nonnull align 8 dereferenceable(100) %1, ptr noundef %7, ptr noundef nonnull %10, i8 noundef zeroext %3)
  br label %14

14:                                               ; preds = %.lr.ph, %13
  %15 = add nuw nsw i32 %.016, 1
  %16 = tail call noundef i32 @_ZNK9dtNavMesh11getMaxTilesEv(ptr noundef nonnull align 8 dereferenceable(100) %1)
  %17 = icmp slt i32 %15, %16
  br i1 %17, label %.lr.ph, label %.loopexit, !llvm.loop !12

.loopexit:                                        ; preds = %14, %5, %4
  ret void
}